; Function Attrs: null_pointer_is_valid sspstrong uwtable
define internal range(i32 -268435456, 268435456) i32 @dissect_RAB_SetupOrModifiedItem_PDU(ptr noundef %0, ptr noundef %1, ptr noundef %2, ptr readnone captures(none) %3) #0 {
  %5 = alloca %struct._address, align 8
  %6 = alloca i32, align 4
  %7 = alloca %struct._asn1_ctx_t, align 8
  call void @llvm.lifetime.start.p0(i64 208, ptr nonnull %7) #4
  call void @asn1_ctx_init(ptr noundef nonnull %7, i32 noundef 1, i1 noundef zeroext true, ptr noundef %1)
  %8 = load i32, ptr @hf_ranap_RAB_SetupOrModifiedItem_PDU, align 4
  call void @llvm.lifetime.start.p0(i64 24, ptr nonnull %5) #4
  call void @llvm.lifetime.start.p0(i64 4, ptr nonnull %6) #4
  %9 = getelementptr inbounds nuw i8, ptr %7, i64 16
  %.val.i = load ptr, ptr %9, align 8
  %10 = getelementptr inbounds nuw i8, ptr %.val.i, i64 408
  %11 = load ptr, ptr %10, align 8
  %12 = load i32, ptr @proto_ranap, align 4
  %13 = call ptr @p_get_proto_data(ptr noundef %11, ptr noundef %.val.i, i32 noundef %12, i32 noundef 0)
  %14 = icmp eq ptr %13, null
  br i1 %14, label %15, label %private_data_set_transportLayerAddress_ipv4.exit.i

15:                                               ; preds = %4
  %16 = load ptr, ptr %10, align 8
  %17 = call noalias dereferenceable_or_null(12) ptr @wmem_alloc0(ptr noundef %16, i64 noundef 12) #5
  %18 = load ptr, ptr %10, align 8
  %19 = load i32, ptr @proto_ranap, align 4
  call void @p_add_proto_data(ptr noundef %18, ptr noundef %.val.i, i32 noundef %19, i32 noundef 0, ptr noundef %17)
  br label %private_data_set_transportLayerAddress_ipv4.exit.i

private_data_set_transportLayerAddress_ipv4.exit.i: ; preds = %15, %4
  %.0.i.i.i = phi ptr [ %17, %15 ], [ %13, %4 ]
  store i32 0, ptr %.0.i.i.i, align 4
  %.val20.i = load ptr, ptr %9, align 8
  %20 = getelementptr inbounds nuw i8, ptr %.val20.i, i64 408
  %21 = load ptr, ptr %20, align 8
  %22 = load i32, ptr @proto_ranap, align 4
  %23 = call ptr @p_get_proto_data(ptr noundef %21, ptr noundef %.val20.i, i32 noundef %22, i32 noundef 0)
  %24 = icmp eq ptr %23, null
  br i1 %24, label %25, label %private_data_set_binding_id_port.exit.i

25:                                               ; preds = %private_data_set_transportLayerAddress_ipv4.exit.i
  %26 = load ptr, ptr %20, align 8
  %27 = call noalias dereferenceable_or_null(12) ptr @wmem_alloc0(ptr noundef %26, i64 noundef 12) #5
  %28 = load ptr, ptr %20, align 8
  %29 = load i32, ptr @proto_ranap, align 4
  call void @p_add_proto_data(ptr noundef %28, ptr noundef %.val20.i, i32 noundef %29, i32 noundef 0, ptr noundef %27)
  br label %private_data_set_binding_id_port.exit.i

private_data_set_binding_id_port.exit.i:          ; preds = %25, %private_data_set_transportLayerAddress_ipv4.exit.i
  %.0.i.i23.i = phi ptr [ %27, %25 ], [ %23, %private_data_set_transportLayerAddress_ipv4.exit.i ]
  %30 = getelementptr inbounds nuw i8, ptr %.0.i.i23.i, i64 4
  store i16 0, ptr %30, align 4
  %31 = load i32, ptr @ett_ranap_RAB_SetupOrModifiedItem, align 4
  %32 = call i32 @dissect_per_sequence(ptr noundef %0, i32 noundef 0, ptr noundef nonnull %7, ptr noundef %2, i32 noundef %8, i32 noundef %31, ptr noundef nonnull @RAB_SetupOrModifiedItem_sequence)
  %.val21.i = load ptr, ptr %9, align 8
  %33 = getelementptr inbounds nuw i8, ptr %.val21.i, i64 408
  %34 = load ptr, ptr %33, align 8
  %35 = load i32, ptr @proto_ranap, align 4
  %36 = call ptr @p_get_proto_data(ptr noundef %34, ptr noundef %.val21.i, i32 noundef %35, i32 noundef 0)
  %37 = icmp eq ptr %36, null
  br i1 %37, label %38, label %private_data_get_transportLayerAddress_ipv4.exit.i

38:                                               ; preds = %private_data_set_binding_id_port.exit.i
  %39 = load ptr, ptr %33, align 8
  %40 = call noalias dereferenceable_or_null(12) ptr @wmem_alloc0(ptr noundef %39, i64 noundef 12) #5
  %41 = load ptr, ptr %33, align 8
  %42 = load i32, ptr @proto_ranap, align 4
  call void @p_add_proto_data(ptr noundef %41, ptr noundef %.val21.i, i32 noundef %42, i32 noundef 0, ptr noundef %40)
  br label %private_data_get_transportLayerAddress_ipv4.exit.i

private_data_get_transportLayerAddress_ipv4.exit.i: ; preds = %38, %private_data_set_binding_id_port.exit.i
  %.0.i.i24.i = phi ptr [ %40, %38 ], [ %36, %private_data_set_binding_id_port.exit.i ]
  %43 = load i32, ptr %.0.i.i24.i, align 4
  store i32 %43, ptr %6, align 4
  %.val22.i = load ptr, ptr %9, align 8
  %44 = getelementptr inbounds nuw i8, ptr %.val22.i, i64 408
  %45 = load ptr, ptr %44, align 8
  %46 = load i32, ptr @proto_ranap, align 4
  %47 = call ptr @p_get_proto_data(ptr noundef %45, ptr noundef %.val22.i, i32 noundef %46, i32 noundef 0)
  %48 = icmp eq ptr %47, null
  br i1 %48, label %49, label %private_data_get_binding_id_port.exit.i

49:                                               ; preds = %private_data_get_transportLayerAddress_ipv4.exit.i
  %50 = load ptr, ptr %44, align 8
  %51 = call noalias dereferenceable_or_null(12) ptr @wmem_alloc0(ptr noundef %50, i64 noundef 12) #5
  %52 = load ptr, ptr %44, align 8
  %53 = load i32, ptr @proto_ranap, align 4
  call void @p_add_proto_data(ptr noundef %52, ptr noundef %.val22.i, i32 noundef %53, i32 noundef 0, ptr noundef %51)
  br label %private_data_get_binding_id_port.exit.i

private_data_get_binding_id_port.exit.i:          ; preds = %49, %private_data_get_transportLayerAddress_ipv4.exit.i
  %.0.i.i25.i = phi ptr [ %51, %49 ], [ %47, %private_data_get_transportLayerAddress_ipv4.exit.i ]
  %54 = getelementptr inbounds nuw i8, ptr %.0.i.i25.i, i64 4
  %55 = load i16, ptr %54, align 4
  %56 = load ptr, ptr %9, align 8
  %57 = getelementptr inbounds nuw i8, ptr %56, i64 80
  %58 = load ptr, ptr %57, align 8
  %59 = getelementptr inbounds nuw i8, ptr %58, i64 57
  %60 = load i16, ptr %59, align 1
  %61 = and i16 %60, 8
  %62 = icmp ne i16 %61, 0
  %63 = icmp eq i32 %43, 0
  %or.cond.i = select i1 %62, i1 true, i1 %63
  %64 = icmp eq i16 %55, 0
  %or.cond4.i = select i1 %or.cond.i, i1 true, i1 %64
  br i1 %or.cond4.i, label %dissect_ranap_RAB_SetupOrModifiedItem.exit, label %65

65:                                               ; preds = %private_data_get_binding_id_port.exit.i
  %66 = zext i16 %55 to i32
  store i32 2, ptr %5, align 8
  %67 = getelementptr inbounds nuw i8, ptr %5, i64 4
  store i32 4, ptr %67, align 4
  %68 = getelementptr inbounds nuw i8, ptr %5, i64 8
  store ptr %6, ptr %68, align 8
  %69 = getelementptr inbounds nuw i8, ptr %5, i64 16
  store ptr null, ptr %69, align 8
  %70 = getelementptr inbounds nuw i8, ptr %56, i64 20
  %71 = load i32, ptr %70, align 4
  call void @rtp_add_address(ptr noundef %56, i32 noundef 3, ptr noundef nonnull %5, i32 noundef %66, i32 noundef 0, ptr noundef nonnull @.str.1633, i32 noundef %71, i32 noundef 0, ptr noundef null)
  br label %dissect_ranap_RAB_SetupOrModifiedItem.exit

dissect_ranap_RAB_SetupOrModifiedItem.exit:       ; preds = %private_data_get_binding_id_port.exit.i, %65
  call void @llvm.lifetime.end.p0(i64 4, ptr nonnull %6) #4
  call void @llvm.lifetime.end.p0(i64 24, ptr nonnull %5) #4
  %72 = add i32 %32, 7
  %73 = ashr i32 %72, 3
  call void @llvm.lifetime.end.p0(i64 208, ptr nonnull %7) #4
  ret i32 %73
}